; Function Attrs: mustprogress nofree norecurse nosync nounwind memory(argmem: readwrite) uwtable
define hidden void @_ZN2cv11accW_16u64fEPKtPdPKhiid(ptr noundef readonly captures(none) %0, ptr noundef captures(none) %1, ptr noundef readonly %2, i32 noundef %3, i32 noundef %4, double noundef %5) local_unnamed_addr #0 {
  %7 = fsub double 1.000000e+00, %5
  %.not.i.i = icmp eq ptr %2, null
  br i1 %.not.i.i, label %8, label %18

8:                                                ; preds = %6
  %9 = mul nsw i32 %4, %3
  %10 = icmp sgt i32 %9, 0
  br i1 %10, label %.lr.ph.preheader.i.i, label %_ZN2cv12cpu_baseline10accW_simd_EPKtPdPKhiid.exit

.lr.ph.preheader.i.i:                             ; preds = %8
  %wide.trip.count66.i.i = zext nneg i32 %9 to i64
  br label %.lr.ph.i.i

.lr.ph.i.i:                                       ; preds = %.lr.ph.i.i, %.lr.ph.preheader.i.i
  %indvars.iv63.i.i = phi i64 [ 0, %.lr.ph.preheader.i.i ], [ %indvars.iv.next64.i.i, %.lr.ph.i.i ]
  %11 = getelementptr inbounds nuw i16, ptr %0, i64 %indvars.iv63.i.i
  %12 = load i16, ptr %11, align 2, !tbaa !12
  %13 = uitofp i16 %12 to double
  %14 = getelementptr inbounds nuw double, ptr %1, i64 %indvars.iv63.i.i
  %15 = load double, ptr %14, align 8, !tbaa !20
  %16 = fmul double %7, %15
  %17 = tail call double @llvm.fmuladd.f64(double %13, double %5, double %16)
  store double %17, ptr %14, align 8, !tbaa !20
  %indvars.iv.next64.i.i = add nuw nsw i64 %indvars.iv63.i.i, 1
  %exitcond67.not.i.i = icmp eq i64 %indvars.iv.next64.i.i, %wide.trip.count66.i.i
  br i1 %exitcond67.not.i.i, label %_ZN2cv12cpu_baseline10accW_simd_EPKtPdPKhiid.exit, label %.lr.ph.i.i, !llvm.loop !88

18:                                               ; preds = %6
  %19 = icmp sgt i32 %3, 0
  br i1 %19, label %.lr.ph53.i.i, label %_ZN2cv12cpu_baseline10accW_simd_EPKtPdPKhiid.exit

.lr.ph53.i.i:                                     ; preds = %18
  %20 = icmp sgt i32 %4, 0
  %21 = sext i32 %4 to i64
  br i1 %20, label %.lr.ph53.split.us.preheader.i.i, label %_ZN2cv12cpu_baseline10accW_simd_EPKtPdPKhiid.exit

.lr.ph53.split.us.preheader.i.i:                  ; preds = %.lr.ph53.i.i
  %wide.trip.count61.i.i = zext nneg i32 %3 to i64
  %wide.trip.count.i.i = zext nneg i32 %4 to i64
  br label %.lr.ph53.split.us.i.i

.lr.ph53.split.us.i.i:                            ; preds = %..loopexit47_crit_edge.us.i.i, %.lr.ph53.split.us.preheader.i.i
  %indvars.iv58.i.i = phi i64 [ 0, %.lr.ph53.split.us.preheader.i.i ], [ %indvars.iv.next59.i.i, %..loopexit47_crit_edge.us.i.i ]
  %.04351.us.i.i = phi ptr [ %0, %.lr.ph53.split.us.preheader.i.i ], [ %31, %..loopexit47_crit_edge.us.i.i ]
  %.04450.us.i.i = phi ptr [ %1, %.lr.ph53.split.us.preheader.i.i ], [ %32, %..loopexit47_crit_edge.us.i.i ]
  %22 = getelementptr inbounds nuw i8, ptr %2, i64 %indvars.iv58.i.i
  %23 = load i8, ptr %22, align 1, !tbaa !3
  %.not46.us.i.i = icmp eq i8 %23, 0
  br i1 %.not46.us.i.i, label %..loopexit47_crit_edge.us.i.i, label %.preheader.us.i.i

.preheader.us.i.i:                                ; preds = %.lr.ph53.split.us.i.i, %.preheader.us.i.i
  %indvars.iv.i.i = phi i64 [ %indvars.iv.next.i.i, %.preheader.us.i.i ], [ 0, %.lr.ph53.split.us.i.i ]
  %24 = getelementptr inbounds nuw i16, ptr %.04351.us.i.i, i64 %indvars.iv.i.i
  %25 = load i16, ptr %24, align 2, !tbaa !12
  %26 = uitofp i16 %25 to double
  %27 = getelementptr inbounds nuw double, ptr %.04450.us.i.i, i64 %indvars.iv.i.i
  %28 = load double, ptr %27, align 8, !tbaa !20
  %29 = fmul double %7, %28
  %30 = tail call double @llvm.fmuladd.f64(double %26, double %5, double %29)
  store double %30, ptr %27, align 8, !tbaa !20
  %indvars.iv.next.i.i = add nuw nsw i64 %indvars.iv.i.i, 1
  %exitcond.not.i.i = icmp eq i64 %indvars.iv.next.i.i, %wide.trip.count.i.i
  br i1 %exitcond.not.i.i, label %..loopexit47_crit_edge.us.i.i, label %.preheader.us.i.i, !llvm.loop !89

..loopexit47_crit_edge.us.i.i:                    ; preds = %.preheader.us.i.i, %.lr.ph53.split.us.i.i
  %indvars.iv.next59.i.i = add nuw nsw i64 %indvars.iv58.i.i, 1
  %31 = getelementptr inbounds nuw i16, ptr %.04351.us.i.i, i64 %21
  %32 = getelementptr inbounds nuw double, ptr %.04450.us.i.i, i64 %21
  %exitcond62.not.i.i = icmp eq i64 %indvars.iv.next59.i.i, %wide.trip.count61.i.i
  br i1 %exitcond62.not.i.i, label %_ZN2cv12cpu_baseline10accW_simd_EPKtPdPKhiid.exit, label %.lr.ph53.split.us.i.i, !llvm.loop !90

_ZN2cv12cpu_baseline10accW_simd_EPKtPdPKhiid.exit: ; preds = %..loopexit47_crit_edge.us.i.i, %.lr.ph.i.i, %8, %18, %.lr.ph53.i.i
  ret void
}